target datalayout = "e-m:e-p270:32:32-p271:32:32-p272:64:64-i64:64-i128:128-f80:128-n8:16:32:64-S128"
target triple = "x86_64-pc-linux-gnu"

@H5_libinit_g = external global i8, align 1
@H5_libterm_g = external global i8, align 1
@.str = private unnamed_addr constant [97 x i8] c"generated/home/dtcxzyw/WorkSpace/Projects/compilers/llvm-opt-benchmark/bench/hdf5/hdf5/src/H5P.c\00", align 1
@H5E_FUNC_g = external global i64, align 8
@H5E_CANTINIT_g = external global i64, align 8
@.str.1 = private unnamed_addr constant [30 x i8] c"library initialization failed\00", align 1
@H5E_CANTSET_g = external global i64, align 8
@.str.2 = private unnamed_addr constant [22 x i8] c"can't set API context\00", align 1
@H5E_ARGS_g = external global i64, align 8
@H5E_BADTYPE_g = external global i64, align 8
@H5E_PLIST_g = external global i64, align 8
@H5E_CANTREGISTER_g = external global i64, align 8
@H5E_BADVALUE_g = external global i64, align 8
@.str.18 = private unnamed_addr constant [20 x i8] c"not a property list\00", align 1
@.str.19 = private unnamed_addr constant [22 x i8] c"invalid property name\00", align 1
@__func__.H5Pexist = private unnamed_addr constant [9 x i8] c"H5Pexist\00", align 1
@.str.23 = private unnamed_addr constant [22 x i8] c"not a property object\00", align 1
@.str.24 = private unnamed_addr constant [32 x i8] c"property does not exist in list\00", align 1
@.str.25 = private unnamed_addr constant [21 x i8] c"not a property class\00", align 1
@.str.26 = private unnamed_addr constant [33 x i8] c"property does not exist in class\00", align 1

; Function Attrs: nounwind uwtable
define i32 @H5Pexist(i64 noundef %0, ptr noundef %1) #0 {
  %3 = alloca i64, align 8
  %4 = alloca ptr, align 8
  %5 = alloca ptr, align 8
  %6 = alloca ptr, align 8
  %7 = alloca i32, align 4
  %8 = alloca i8, align 1
  %9 = alloca i8, align 1
  store i64 %0, ptr %3, align 8
  store ptr %1, ptr %4, align 8
  store i8 0, ptr %8, align 1
  store i8 0, ptr %9, align 1
  %10 = load i8, ptr @H5_libinit_g, align 1
  %11 = trunc i8 %10 to i1
  br i1 %11, label %16, label %12

12:                                               ; preds = %2
  %13 = load i8, ptr @H5_libterm_g, align 1
  %14 = trunc i8 %13 to i1
  %15 = xor i1 %14, true
  br label %16

16:                                               ; preds = %12, %2
  %17 = phi i1 [ false, %2 ], [ %15, %12 ]
  %18 = xor i1 %17, true
  %19 = xor i1 %18, true
  %20 = zext i1 %19 to i32
  %21 = sext i32 %20 to i64
  %22 = icmp ne i64 %21, 0
  br i1 %22, label %23, label %47

23:                                               ; preds = %16
  %24 = call i32 @H5_init_library()
  %25 = icmp slt i32 %24, 0
  %26 = xor i1 %25, true
  %27 = xor i1 %26, true
  %28 = zext i1 %27 to i32
  %29 = sext i32 %28 to i64
  %30 = icmp ne i64 %29, 0
  br i1 %30, label %31, label %46

31:                                               ; preds = %23
  br label %32

32:                                               ; preds = %31
  br label %33

33:                                               ; preds = %32
  br label %34

34:                                               ; preds = %33
  %35 = load i64, ptr @H5E_FUNC_g, align 8
  %36 = load i64, ptr @H5E_CANTINIT_g, align 8
  %37 = call i32 (ptr, ptr, i32, i64, i64, ptr, ...) @H5E_printf_stack(ptr noundef @.str, ptr noundef @__func__.H5Pexist, i32 noundef 692, i64 noundef %35, i64 noundef %36, ptr noundef @.str.1)
  br label %38

38:                                               ; preds = %34
  store i8 1, ptr %9, align 1
  %39 = load i8, ptr %9, align 1
  %40 = trunc i8 %39 to i1
  %41 = zext i1 %40 to i8
  store i8 %41, ptr %9, align 1
  br label %42

42:                                               ; preds = %38
  br label %43

43:                                               ; preds = %42
  store i32 -1, ptr %7, align 4
  br label %222

44:                                               ; No predecessors!
  br label %45

45:                                               ; preds = %44
  br label %46

46:                                               ; preds = %45, %23
  br label %47

47:                                               ; preds = %46, %16
  %48 = call i32 @H5CX_push()
  %49 = icmp slt i32 %48, 0
  %50 = xor i1 %49, true
  %51 = xor i1 %50, true
  %52 = zext i1 %51 to i32
  %53 = sext i32 %52 to i64
  %54 = icmp ne i64 %53, 0
  br i1 %54, label %55, label %70

55:                                               ; preds = %47
  br label %56

56:                                               ; preds = %55
  br label %57

57:                                               ; preds = %56
  br label %58

58:                                               ; preds = %57
  %59 = load i64, ptr @H5E_FUNC_g, align 8
  %60 = load i64, ptr @H5E_CANTSET_g, align 8
  %61 = call i32 (ptr, ptr, i32, i64, i64, ptr, ...) @H5E_printf_stack(ptr noundef @.str, ptr noundef @__func__.H5Pexist, i32 noundef 692, i64 noundef %59, i64 noundef %60, ptr noundef @.str.2)
  br label %62

62:                                               ; preds = %58
  store i8 1, ptr %9, align 1
  %63 = load i8, ptr %9, align 1
  %64 = trunc i8 %63 to i1
  %65 = zext i1 %64 to i8
  store i8 %65, ptr %9, align 1
  br label %66

66:                                               ; preds = %62
  br label %67

67:                                               ; preds = %66
  store i32 -1, ptr %7, align 4
  br label %222

68:                                               ; No predecessors!
  br label %69

69:                                               ; preds = %68
  br label %71

70:                                               ; preds = %47
  store i8 1, ptr %8, align 1
  br label %71

71:                                               ; preds = %70, %69
  %72 = call i32 @H5E_clear_stack()
  %73 = load i64, ptr %3, align 8
  %74 = call i32 @H5I_get_type(i64 noundef %73)
  %75 = icmp ne i32 11, %74
  br i1 %75, label %76, label %95

76:                                               ; preds = %71
  %77 = load i64, ptr %3, align 8
  %78 = call i32 @H5I_get_type(i64 noundef %77)
  %79 = icmp ne i32 10, %78
  br i1 %79, label %80, label %95

80:                                               ; preds = %76
  br label %81

81:                                               ; preds = %80
  br label %82

82:                                               ; preds = %81
  br label %83

83:                                               ; preds = %82
  %84 = load i64, ptr @H5E_ARGS_g, align 8
  %85 = load i64, ptr @H5E_BADTYPE_g, align 8
  %86 = call i32 (ptr, ptr, i32, i64, i64, ptr, ...) @H5E_printf_stack(ptr noundef @.str, ptr noundef @__func__.H5Pexist, i32 noundef 696, i64 noundef %84, i64 noundef %85, ptr noundef @.str.23)
  br label %87

87:                                               ; preds = %83
  store i8 1, ptr %9, align 1
  %88 = load i8, ptr %9, align 1
  %89 = trunc i8 %88 to i1
  %90 = zext i1 %89 to i8
  store i8 %90, ptr %9, align 1
  br label %91

91:                                               ; preds = %87
  br label %92

92:                                               ; preds = %91
  store i32 -1, ptr %7, align 4
  br label %222

93:                                               ; No predecessors!
  br label %94

94:                                               ; preds = %93
  br label %95

95:                                               ; preds = %94, %76, %71
  %96 = load ptr, ptr %4, align 8
  %97 = icmp ne ptr %96, null
  br i1 %97, label %98, label %102

98:                                               ; preds = %95
  %99 = load ptr, ptr %4, align 8
  %100 = load i8, ptr %99, align 1
  %101 = icmp ne i8 %100, 0
  br i1 %101, label %117, label %102

102:                                              ; preds = %98, %95
  br label %103

103:                                              ; preds = %102
  br label %104

104:                                              ; preds = %103
  br label %105

105:                                              ; preds = %104
  %106 = load i64, ptr @H5E_ARGS_g, align 8
  %107 = load i64, ptr @H5E_BADVALUE_g, align 8
  %108 = call i32 (ptr, ptr, i32, i64, i64, ptr, ...) @H5E_printf_stack(ptr noundef @.str, ptr noundef @__func__.H5Pexist, i32 noundef 698, i64 noundef %106, i64 noundef %107, ptr noundef @.str.19)
  br label %109

109:                                              ; preds = %105
  store i8 1, ptr %9, align 1
  %110 = load i8, ptr %9, align 1
  %111 = trunc i8 %110 to i1
  %112 = zext i1 %111 to i8
  store i8 %112, ptr %9, align 1
  br label %113

113:                                              ; preds = %109
  br label %114

114:                                              ; preds = %113
  store i32 -1, ptr %7, align 4
  br label %222

115:                                              ; No predecessors!
  br label %116

116:                                              ; preds = %115
  br label %117

117:                                              ; preds = %116, %98
  %118 = load i64, ptr %3, align 8
  %119 = call i32 @H5I_get_type(i64 noundef %118)
  %120 = icmp eq i32 11, %119
  br i1 %120, label %121, label %161

121:                                              ; preds = %117
  %122 = load i64, ptr %3, align 8
  %123 = call ptr @H5I_object(i64 noundef %122)
  store ptr %123, ptr %5, align 8
  %124 = icmp eq ptr null, %123
  br i1 %124, label %125, label %140

125:                                              ; preds = %121
  br label %126

126:                                              ; preds = %125
  br label %127

127:                                              ; preds = %126
  br label %128

128:                                              ; preds = %127
  %129 = load i64, ptr @H5E_ARGS_g, align 8
  %130 = load i64, ptr @H5E_BADTYPE_g, align 8
  %131 = call i32 (ptr, ptr, i32, i64, i64, ptr, ...) @H5E_printf_stack(ptr noundef @.str, ptr noundef @__func__.H5Pexist, i32 noundef 703, i64 noundef %129, i64 noundef %130, ptr noundef @.str.18)
  br label %132

132:                                              ; preds = %128
  store i8 1, ptr %9, align 1
  %133 = load i8, ptr %9, align 1
  %134 = trunc i8 %133 to i1
  %135 = zext i1 %134 to i8
  store i8 %135, ptr %9, align 1
  br label %136

136:                                              ; preds = %132
  br label %137

137:                                              ; preds = %136
  store i32 -1, ptr %7, align 4
  br label %222

138:                                              ; No predecessors!
  br label %139

139:                                              ; preds = %138
  br label %140

140:                                              ; preds = %139, %121
  %141 = load ptr, ptr %5, align 8
  %142 = load ptr, ptr %4, align 8
  %143 = call i32 @H5P_exist_plist(ptr noundef %141, ptr noundef %142)
  store i32 %143, ptr %7, align 4
  %144 = icmp slt i32 %143, 0
  br i1 %144, label %145, label %160

145:                                              ; preds = %140
  br label %146

146:                                              ; preds = %145
  br label %147

147:                                              ; preds = %146
  br label %148

148:                                              ; preds = %147
  %149 = load i64, ptr @H5E_PLIST_g, align 8
  %150 = load i64, ptr @H5E_CANTREGISTER_g, align 8
  %151 = call i32 (ptr, ptr, i32, i64, i64, ptr, ...) @H5E_printf_stack(ptr noundef @.str, ptr noundef @__func__.H5Pexist, i32 noundef 705, i64 noundef %149, i64 noundef %150, ptr noundef @.str.24)
  br label %152

152:                                              ; preds = %148
  store i8 1, ptr %9, align 1
  %153 = load i8, ptr %9, align 1
  %154 = trunc i8 %153 to i1
  %155 = zext i1 %154 to i8
  store i8 %155, ptr %9, align 1
  br label %156

156:                                              ; preds = %152
  br label %157

157:                                              ; preds = %156
  store i32 -1, ptr %7, align 4
  br label %222

158:                                              ; No predecessors!
  br label %159

159:                                              ; preds = %158
  br label %160

160:                                              ; preds = %159, %140
  br label %221

161:                                              ; preds = %117
  %162 = load i64, ptr %3, align 8
  %163 = call i32 @H5I_get_type(i64 noundef %162)
  %164 = icmp eq i32 10, %163
  br i1 %164, label %165, label %205

165:                                              ; preds = %161
  %166 = load i64, ptr %3, align 8
  %167 = call ptr @H5I_object(i64 noundef %166)
  store ptr %167, ptr %6, align 8
  %168 = icmp eq ptr null, %167
  br i1 %168, label %169, label %184

169:                                              ; preds = %165
  br label %170

170:                                              ; preds = %169
  br label %171

171:                                              ; preds = %170
  br label %172

172:                                              ; preds = %171
  %173 = load i64, ptr @H5E_ARGS_g, align 8
  %174 = load i64, ptr @H5E_BADTYPE_g, align 8
  %175 = call i32 (ptr, ptr, i32, i64, i64, ptr, ...) @H5E_printf_stack(ptr noundef @.str, ptr noundef @__func__.H5Pexist, i32 noundef 709, i64 noundef %173, i64 noundef %174, ptr noundef @.str.25)
  br label %176

176:                                              ; preds = %172
  store i8 1, ptr %9, align 1
  %177 = load i8, ptr %9, align 1
  %178 = trunc i8 %177 to i1
  %179 = zext i1 %178 to i8
  store i8 %179, ptr %9, align 1
  br label %180

180:                                              ; preds = %176
  br label %181

181:                                              ; preds = %180
  store i32 -1, ptr %7, align 4
  br label %222

182:                                              ; No predecessors!
  br label %183

183:                                              ; preds = %182
  br label %184

184:                                              ; preds = %183, %165
  %185 = load ptr, ptr %6, align 8
  %186 = load ptr, ptr %4, align 8
  %187 = call i32 @H5P__exist_pclass(ptr noundef %185, ptr noundef %186)
  store i32 %187, ptr %7, align 4
  %188 = icmp slt i32 %187, 0
  br i1 %188, label %189, label %204

189:                                              ; preds = %184
  br label %190

190:                                              ; preds = %189
  br label %191

191:                                              ; preds = %190
  br label %192

192:                                              ; preds = %191
  %193 = load i64, ptr @H5E_PLIST_g, align 8
  %194 = load i64, ptr @H5E_CANTREGISTER_g, align 8
  %195 = call i32 (ptr, ptr, i32, i64, i64, ptr, ...) @H5E_printf_stack(ptr noundef @.str, ptr noundef @__func__.H5Pexist, i32 noundef 711, i64 noundef %193, i64 noundef %194, ptr noundef @.str.26)
  br label %196

196:                                              ; preds = %192
  store i8 1, ptr %9, align 1
  %197 = load i8, ptr %9, align 1
  %198 = trunc i8 %197 to i1
  %199 = zext i1 %198 to i8
  store i8 %199, ptr %9, align 1
  br label %200

200:                                              ; preds = %196
  br label %201

201:                                              ; preds = %200
  store i32 -1, ptr %7, align 4
  br label %222

202:                                              ; No predecessors!
  br label %203

203:                                              ; preds = %202
  br label %204

204:                                              ; preds = %203, %184
  br label %220

205:                                              ; preds = %161
  br label %206

206:                                              ; preds = %205
  br label %207

207:                                              ; preds = %206
  br label %208

208:                                              ; preds = %207
  %209 = load i64, ptr @H5E_ARGS_g, align 8
  %210 = load i64, ptr @H5E_BADTYPE_g, align 8
  %211 = call i32 (ptr, ptr, i32, i64, i64, ptr, ...) @H5E_printf_stack(ptr noundef @.str, ptr noundef @__func__.H5Pexist, i32 noundef 714, i64 noundef %209, i64 noundef %210, ptr noundef @.str.23)
  br label %212

212:                                              ; preds = %208
  store i8 1, ptr %9, align 1
  %213 = load i8, ptr %9, align 1
  %214 = trunc i8 %213 to i1
  %215 = zext i1 %214 to i8
  store i8 %215, ptr %9, align 1
  br label %216

216:                                              ; preds = %212
  br label %217

217:                                              ; preds = %216
  store i32 -1, ptr %7, align 4
  br label %222

218:                                              ; No predecessors!
  br label %219

219:                                              ; preds = %218
  br label %220

220:                                              ; preds = %219, %204
  br label %221

221:                                              ; preds = %220, %160
  br label %222

222:                                              ; preds = %221, %217, %201, %181, %157, %137, %114, %92, %67, %43
  %223 = load i8, ptr %8, align 1
  %224 = trunc i8 %223 to i1
  %225 = xor i1 %224, true
  %226 = xor i1 %225, true
  %227 = zext i1 %226 to i32
  %228 = sext i32 %227 to i64
  %229 = icmp ne i64 %228, 0
  br i1 %229, label %230, label %232

230:                                              ; preds = %222
  %231 = call i32 @H5CX_pop(i1 noundef zeroext true)
  store i8 0, ptr %8, align 1
  br label %232

232:                                              ; preds = %230, %222
  %233 = load i8, ptr %9, align 1
  %234 = trunc i8 %233 to i1
  %235 = xor i1 %234, true
  %236 = xor i1 %235, true
  %237 = zext i1 %236 to i32
  %238 = sext i32 %237 to i64
  %239 = icmp ne i64 %238, 0
  br i1 %239, label %240, label %242

240:                                              ; preds = %232
  %241 = call i32 @H5E_dump_api_stack()
  br label %242

242:                                              ; preds = %240, %232
  %243 = load i32, ptr %7, align 4
  ret i32 %243
}