; Function Attrs: nounwind uwtable
define range(i32 -1, -2147483648) i32 @H5Pexist(i64 noundef %0, ptr noundef %1) local_unnamed_addr #0 {
  %3 = load i8, ptr @H5_libinit_g, align 1
  %4 = trunc i8 %3 to i1
  %5 = load i8, ptr @H5_libterm_g, align 1
  %6 = trunc i8 %5 to i1
  %7 = select i1 %4, i1 true, i1 %6
  br i1 %7, label %15, label %8

8:                                                ; preds = %2
  %9 = tail call i32 @H5_init_library() #2
  %10 = icmp slt i32 %9, 0
  br i1 %10, label %11, label %15

11:                                               ; preds = %8
  %12 = load i64, ptr @H5E_FUNC_g, align 8
  %13 = load i64, ptr @H5E_CANTINIT_g, align 8
  %14 = tail call i32 (ptr, ptr, i32, i64, i64, ptr, ...) @H5E_printf_stack(ptr noundef nonnull @.str, ptr noundef nonnull @__func__.H5Pexist, i32 noundef 692, i64 noundef %12, i64 noundef %13, ptr noundef nonnull @.str.1) #2
  br label %.thread41

15:                                               ; preds = %8, %2
  %16 = tail call i32 @H5CX_push() #2
  %17 = icmp slt i32 %16, 0
  br i1 %17, label %18, label %22

18:                                               ; preds = %15
  %19 = load i64, ptr @H5E_FUNC_g, align 8
  %20 = load i64, ptr @H5E_CANTSET_g, align 8
  %21 = tail call i32 (ptr, ptr, i32, i64, i64, ptr, ...) @H5E_printf_stack(ptr noundef nonnull @.str, ptr noundef nonnull @__func__.H5Pexist, i32 noundef 692, i64 noundef %19, i64 noundef %20, ptr noundef nonnull @.str.2) #2
  br label %.thread41

22:                                               ; preds = %15
  %23 = tail call i32 @H5E_clear_stack() #2
  %24 = tail call i32 @H5I_get_type(i64 noundef %0) #2
  %.not = icmp eq i32 %24, 11
  br i1 %.not, label %31, label %25

25:                                               ; preds = %22
  %26 = tail call i32 @H5I_get_type(i64 noundef %0) #2
  %.not30 = icmp eq i32 %26, 10
  br i1 %.not30, label %31, label %27

27:                                               ; preds = %25
  %28 = load i64, ptr @H5E_ARGS_g, align 8
  %29 = load i64, ptr @H5E_BADTYPE_g, align 8
  %30 = tail call i32 (ptr, ptr, i32, i64, i64, ptr, ...) @H5E_printf_stack(ptr noundef nonnull @.str, ptr noundef nonnull @__func__.H5Pexist, i32 noundef 696, i64 noundef %28, i64 noundef %29, ptr noundef nonnull @.str.23) #2
  br label %.thread47

31:                                               ; preds = %25, %22
  %.not31 = icmp eq ptr %1, null
  br i1 %.not31, label %34, label %32

32:                                               ; preds = %31
  %33 = load i8, ptr %1, align 1
  %.not32 = icmp eq i8 %33, 0
  br i1 %.not32, label %34, label %38

34:                                               ; preds = %31, %32
  %35 = load i64, ptr @H5E_ARGS_g, align 8
  %36 = load i64, ptr @H5E_BADVALUE_g, align 8
  %37 = tail call i32 (ptr, ptr, i32, i64, i64, ptr, ...) @H5E_printf_stack(ptr noundef nonnull @.str, ptr noundef nonnull @__func__.H5Pexist, i32 noundef 698, i64 noundef %35, i64 noundef %36, ptr noundef nonnull @.str.19) #2
  br label %.thread47

38:                                               ; preds = %32
  %39 = tail call i32 @H5I_get_type(i64 noundef %0) #2
  %40 = icmp eq i32 %39, 11
  br i1 %40, label %41, label %55

41:                                               ; preds = %38
  %42 = tail call ptr @H5I_object(i64 noundef %0) #2
  %43 = icmp eq ptr %42, null
  br i1 %43, label %44, label %48

44:                                               ; preds = %41
  %45 = load i64, ptr @H5E_ARGS_g, align 8
  %46 = load i64, ptr @H5E_BADTYPE_g, align 8
  %47 = tail call i32 (ptr, ptr, i32, i64, i64, ptr, ...) @H5E_printf_stack(ptr noundef nonnull @.str, ptr noundef nonnull @__func__.H5Pexist, i32 noundef 703, i64 noundef %45, i64 noundef %46, ptr noundef nonnull @.str.18) #2
  br label %.thread47

48:                                               ; preds = %41
  %49 = tail call i32 @H5P_exist_plist(ptr noundef nonnull %42, ptr noundef nonnull %1) #2
  %50 = icmp slt i32 %49, 0
  br i1 %50, label %51, label %77

51:                                               ; preds = %48
  %52 = load i64, ptr @H5E_PLIST_g, align 8
  %53 = load i64, ptr @H5E_CANTREGISTER_g, align 8
  %54 = tail call i32 (ptr, ptr, i32, i64, i64, ptr, ...) @H5E_printf_stack(ptr noundef nonnull @.str, ptr noundef nonnull @__func__.H5Pexist, i32 noundef 705, i64 noundef %52, i64 noundef %53, ptr noundef nonnull @.str.24) #2
  br label %.thread47

55:                                               ; preds = %38
  %56 = tail call i32 @H5I_get_type(i64 noundef %0) #2
  %57 = icmp eq i32 %56, 10
  br i1 %57, label %58, label %72

58:                                               ; preds = %55
  %59 = tail call ptr @H5I_object(i64 noundef %0) #2
  %60 = icmp eq ptr %59, null
  br i1 %60, label %61, label %65

61:                                               ; preds = %58
  %62 = load i64, ptr @H5E_ARGS_g, align 8
  %63 = load i64, ptr @H5E_BADTYPE_g, align 8
  %64 = tail call i32 (ptr, ptr, i32, i64, i64, ptr, ...) @H5E_printf_stack(ptr noundef nonnull @.str, ptr noundef nonnull @__func__.H5Pexist, i32 noundef 709, i64 noundef %62, i64 noundef %63, ptr noundef nonnull @.str.25) #2
  br label %.thread47

65:                                               ; preds = %58
  %66 = tail call i32 @H5P__exist_pclass(ptr noundef nonnull %59, ptr noundef nonnull %1) #2
  %67 = icmp slt i32 %66, 0
  br i1 %67, label %68, label %77

68:                                               ; preds = %65
  %69 = load i64, ptr @H5E_PLIST_g, align 8
  %70 = load i64, ptr @H5E_CANTREGISTER_g, align 8
  %71 = tail call i32 (ptr, ptr, i32, i64, i64, ptr, ...) @H5E_printf_stack(ptr noundef nonnull @.str, ptr noundef nonnull @__func__.H5Pexist, i32 noundef 711, i64 noundef %69, i64 noundef %70, ptr noundef nonnull @.str.26) #2
  br label %.thread47

72:                                               ; preds = %55
  %73 = load i64, ptr @H5E_ARGS_g, align 8
  %74 = load i64, ptr @H5E_BADTYPE_g, align 8
  %75 = tail call i32 (ptr, ptr, i32, i64, i64, ptr, ...) @H5E_printf_stack(ptr noundef nonnull @.str, ptr noundef nonnull @__func__.H5Pexist, i32 noundef 714, i64 noundef %73, i64 noundef %74, ptr noundef nonnull @.str.23) #2
  br label %.thread47

.thread47:                                        ; preds = %34, %72, %68, %61, %51, %44, %27
  %76 = tail call i32 @H5CX_pop(i1 noundef zeroext true) #2
  br label %.thread41

77:                                               ; preds = %65, %48
  %.024.ph = phi i32 [ %66, %65 ], [ %49, %48 ]
  %78 = tail call i32 @H5CX_pop(i1 noundef zeroext true) #2
  br label %80

.thread41:                                        ; preds = %18, %11, %.thread47
  %79 = tail call i32 @H5E_dump_api_stack() #2
  br label %80

80:                                               ; preds = %77, %.thread41
  %.0243644 = phi i32 [ -1, %.thread41 ], [ %.024.ph, %77 ]
  ret i32 %.0243644
}